; ModuleID = '55/518.c'
source_filename = "55/518.c"
target datalayout = "e-m:e-p270:32:32-p271:32:32-p272:64:64-i64:64-f80:128-n8:16:32:64-S128"
target triple = "x86_64-pc-linux-gnu"

@.str = private unnamed_addr constant [9 x i8] c"%d %s %d\00", align 1
@.str.1 = private unnamed_addr constant [3 x i8] c"%c\00", align 1
@.str.2 = private unnamed_addr constant [2 x i8] c"\0A\00", align 1

; Function Attrs: noinline nounwind uwtable
define dso_local void @main() #0 {
  %1 = alloca i32, align 4
  %2 = alloca i32, align 4
  %3 = alloca i32, align 4
  %4 = alloca i32, align 4
  %5 = alloca i32, align 4
  %6 = alloca i32, align 4
  %7 = alloca i32, align 4
  %8 = alloca [100 x i8], align 16
  %9 = alloca [100 x i8], align 16
  %10 = alloca [100 x i8], align 16
  store i32 0, i32* %7, align 4
  %11 = bitcast [100 x i8]* %8 to i8*
  call void @llvm.memset.p0i8.i64(i8* align 16 %11, i8 0, i64 100, i1 false)
  %12 = bitcast i8* %11 to <{ i8, [99 x i8] }>*
  %13 = getelementptr inbounds <{ i8, [99 x i8] }>, <{ i8, [99 x i8] }>* %12, i32 0, i32 0
  store i8 48, i8* %13, align 16
  %14 = bitcast [100 x i8]* %9 to i8*
  call void @llvm.memset.p0i8.i64(i8* align 16 %14, i8 0, i64 100, i1 false)
  %15 = bitcast i8* %14 to <{ i8, [99 x i8] }>*
  %16 = getelementptr inbounds <{ i8, [99 x i8] }>, <{ i8, [99 x i8] }>* %15, i32 0, i32 0
  store i8 48, i8* %16, align 16
  %17 = bitcast [100 x i8]* %10 to i8*
  call void @llvm.memset.p0i8.i64(i8* align 16 %17, i8 0, i64 100, i1 false)
  %18 = bitcast i8* %17 to <{ i8, [99 x i8] }>*
  %19 = getelementptr inbounds <{ i8, [99 x i8] }>, <{ i8, [99 x i8] }>* %18, i32 0, i32 0
  store i8 48, i8* %19, align 16
  %20 = getelementptr inbounds [100 x i8], [100 x i8]* %8, i64 0, i64 0
  %21 = call i32 (i8*, ...) @__isoc99_scanf(i8* getelementptr inbounds ([9 x i8], [9 x i8]* @.str, i64 0, i64 0), i32* %1, i8* %20, i32* %2)
  %22 = getelementptr inbounds [100 x i8], [100 x i8]* %8, i64 0, i64 0
  %23 = call i64 @strlen(i8* %22) #4
  %24 = trunc i64 %23 to i32
  store i32 %24, i32* %5, align 4
  store i32 0, i32* %3, align 4
  br label %25

25:                                               ; preds = %107, %0
  %26 = load i32, i32* %3, align 4
  %27 = load i32, i32* %5, align 4
  %28 = icmp slt i32 %26, %27
  br i1 %28, label %29, label %110

29:                                               ; preds = %25
  %30 = load i32, i32* %3, align 4
  %31 = sext i32 %30 to i64
  %32 = getelementptr inbounds [100 x i8], [100 x i8]* %8, i64 0, i64 %31
  %33 = load i8, i8* %32, align 1
  %34 = sext i8 %33 to i32
  %35 = icmp sge i32 %34, 48
  br i1 %35, label %36, label %54

36:                                               ; preds = %29
  %37 = load i32, i32* %3, align 4
  %38 = sext i32 %37 to i64
  %39 = getelementptr inbounds [100 x i8], [100 x i8]* %8, i64 0, i64 %38
  %40 = load i8, i8* %39, align 1
  %41 = sext i8 %40 to i32
  %42 = icmp sle i32 %41, 57
  br i1 %42, label %43, label %54

43:                                               ; preds = %36
  %44 = load i32, i32* %7, align 4
  %45 = load i32, i32* %1, align 4
  %46 = mul nsw i32 %44, %45
  %47 = load i32, i32* %3, align 4
  %48 = sext i32 %47 to i64
  %49 = getelementptr inbounds [100 x i8], [100 x i8]* %8, i64 0, i64 %48
  %50 = load i8, i8* %49, align 1
  %51 = sext i8 %50 to i32
  %52 = add nsw i32 %46, %51
  %53 = sub nsw i32 %52, 48
  store i32 %53, i32* %7, align 4
  br label %106

54:                                               ; preds = %36, %29
  %55 = load i32, i32* %3, align 4
  %56 = sext i32 %55 to i64
  %57 = getelementptr inbounds [100 x i8], [100 x i8]* %8, i64 0, i64 %56
  %58 = load i8, i8* %57, align 1
  %59 = sext i8 %58 to i32
  %60 = icmp sge i32 %59, 65
  br i1 %60, label %61, label %79

61:                                               ; preds = %54
  %62 = load i32, i32* %3, align 4
  %63 = sext i32 %62 to i64
  %64 = getelementptr inbounds [100 x i8], [100 x i8]* %8, i64 0, i64 %63
  %65 = load i8, i8* %64, align 1
  %66 = sext i8 %65 to i32
  %67 = icmp sle i32 %66, 90
  br i1 %67, label %68, label %79

68:                                               ; preds = %61
  %69 = load i32, i32* %7, align 4
  %70 = load i32, i32* %1, align 4
  %71 = mul nsw i32 %69, %70
  %72 = load i32, i32* %3, align 4
  %73 = sext i32 %72 to i64
  %74 = getelementptr inbounds [100 x i8], [100 x i8]* %8, i64 0, i64 %73
  %75 = load i8, i8* %74, align 1
  %76 = sext i8 %75 to i32
  %77 = add nsw i32 %71, %76
  %78 = sub nsw i32 %77, 55
  store i32 %78, i32* %7, align 4
  br label %105

79:                                               ; preds = %61, %54
  %80 = load i32, i32* %3, align 4
  %81 = sext i32 %80 to i64
  %82 = getelementptr inbounds [100 x i8], [100 x i8]* %8, i64 0, i64 %81
  %83 = load i8, i8* %82, align 1
  %84 = sext i8 %83 to i32
  %85 = icmp sge i32 %84, 97
  br i1 %85, label %86, label %104

86:                                               ; preds = %79
  %87 = load i32, i32* %3, align 4
  %88 = sext i32 %87 to i64
  %89 = getelementptr inbounds [100 x i8], [100 x i8]* %8, i64 0, i64 %88
  %90 = load i8, i8* %89, align 1
  %91 = sext i8 %90 to i32
  %92 = icmp sle i32 %91, 122
  br i1 %92, label %93, label %104

93:                                               ; preds = %86
  %94 = load i32, i32* %7, align 4
  %95 = load i32, i32* %1, align 4
  %96 = mul nsw i32 %94, %95
  %97 = load i32, i32* %3, align 4
  %98 = sext i32 %97 to i64
  %99 = getelementptr inbounds [100 x i8], [100 x i8]* %8, i64 0, i64 %98
  %100 = load i8, i8* %99, align 1
  %101 = sext i8 %100 to i32
  %102 = add nsw i32 %96, %101
  %103 = sub nsw i32 %102, 87
  store i32 %103, i32* %7, align 4
  br label %104

104:                                              ; preds = %93, %86, %79
  br label %105

105:                                              ; preds = %104, %68
  br label %106

106:                                              ; preds = %105, %43
  br label %107

107:                                              ; preds = %106
  %108 = load i32, i32* %3, align 4
  %109 = add nsw i32 %108, 1
  store i32 %109, i32* %3, align 4
  br label %25

110:                                              ; preds = %25
  store i32 0, i32* %3, align 4
  br label %111

111:                                              ; preds = %138, %110
  %112 = load i32, i32* %7, align 4
  %113 = icmp ne i32 %112, 0
  br i1 %113, label %114, label %141

114:                                              ; preds = %111
  %115 = load i32, i32* %7, align 4
  %116 = load i32, i32* %2, align 4
  %117 = srem i32 %115, %116
  store i32 %117, i32* %6, align 4
  %118 = load i32, i32* %7, align 4
  %119 = load i32, i32* %2, align 4
  %120 = sdiv i32 %118, %119
  store i32 %120, i32* %7, align 4
  %121 = load i32, i32* %6, align 4
  %122 = icmp sle i32 %121, 9
  br i1 %122, label %123, label %130

123:                                              ; preds = %114
  %124 = load i32, i32* %6, align 4
  %125 = add nsw i32 %124, 48
  %126 = trunc i32 %125 to i8
  %127 = load i32, i32* %3, align 4
  %128 = sext i32 %127 to i64
  %129 = getelementptr inbounds [100 x i8], [100 x i8]* %9, i64 0, i64 %128
  store i8 %126, i8* %129, align 1
  br label %137

130:                                              ; preds = %114
  %131 = load i32, i32* %6, align 4
  %132 = add nsw i32 %131, 55
  %133 = trunc i32 %132 to i8
  %134 = load i32, i32* %3, align 4
  %135 = sext i32 %134 to i64
  %136 = getelementptr inbounds [100 x i8], [100 x i8]* %9, i64 0, i64 %135
  store i8 %133, i8* %136, align 1
  br label %137

137:                                              ; preds = %130, %123
  br label %138

138:                                              ; preds = %137
  %139 = load i32, i32* %3, align 4
  %140 = add nsw i32 %139, 1
  store i32 %140, i32* %3, align 4
  br label %111

141:                                              ; preds = %111
  %142 = getelementptr inbounds [100 x i8], [100 x i8]* %9, i64 0, i64 0
  %143 = call i64 @strlen(i8* %142) #4
  %144 = trunc i64 %143 to i32
  store i32 %144, i32* %4, align 4
  store i32 0, i32* %3, align 4
  br label %145

145:                                              ; preds = %160, %141
  %146 = load i32, i32* %3, align 4
  %147 = load i32, i32* %4, align 4
  %148 = icmp slt i32 %146, %147
  br i1 %148, label %149, label %163

149:                                              ; preds = %145
  %150 = load i32, i32* %4, align 4
  %151 = sub nsw i32 %150, 1
  %152 = load i32, i32* %3, align 4
  %153 = sub nsw i32 %151, %152
  %154 = sext i32 %153 to i64
  %155 = getelementptr inbounds [100 x i8], [100 x i8]* %9, i64 0, i64 %154
  %156 = load i8, i8* %155, align 1
  %157 = load i32, i32* %3, align 4
  %158 = sext i32 %157 to i64
  %159 = getelementptr inbounds [100 x i8], [100 x i8]* %10, i64 0, i64 %158
  store i8 %156, i8* %159, align 1
  br label %160

160:                                              ; preds = %149
  %161 = load i32, i32* %3, align 4
  %162 = add nsw i32 %161, 1
  store i32 %162, i32* %3, align 4
  br label %145

163:                                              ; preds = %145
  store i32 0, i32* %3, align 4
  br label %164

164:                                              ; preds = %175, %163
  %165 = load i32, i32* %3, align 4
  %166 = load i32, i32* %4, align 4
  %167 = icmp slt i32 %165, %166
  br i1 %167, label %168, label %178

168:                                              ; preds = %164
  %169 = load i32, i32* %3, align 4
  %170 = sext i32 %169 to i64
  %171 = getelementptr inbounds [100 x i8], [100 x i8]* %10, i64 0, i64 %170
  %172 = load i8, i8* %171, align 1
  %173 = sext i8 %172 to i32
  %174 = call i32 (i8*, ...) @printf(i8* getelementptr inbounds ([3 x i8], [3 x i8]* @.str.1, i64 0, i64 0), i32 %173)
  br label %175

175:                                              ; preds = %168
  %176 = load i32, i32* %3, align 4
  %177 = add nsw i32 %176, 1
  store i32 %177, i32* %3, align 4
  br label %164

178:                                              ; preds = %164
  %179 = call i32 (i8*, ...) @printf(i8* getelementptr inbounds ([2 x i8], [2 x i8]* @.str.2, i64 0, i64 0))
  ret void
}

; Function Attrs: argmemonly nounwind willreturn
declare void @llvm.memset.p0i8.i64(i8* nocapture writeonly, i8, i64, i1 immarg) #1

declare dso_local i32 @__isoc99_scanf(i8*, ...) #2

; Function Attrs: nounwind readonly
declare dso_local i64 @strlen(i8*) #3

declare dso_local i32 @printf(i8*, ...) #2


!llvm.module.flags = !{!0}
!llvm.ident = !{!1}

!0 = !{i32 1, !"wchar_size", i32 4}
!1 = !{!"clang version 10.0.0-4ubuntu1 "}
